target datalayout = "e-m:e-p270:32:32-p271:32:32-p272:64:64-i64:64-i128:128-f80:128-n8:16:32:64-S128"
target triple = "x86_64-pc-linux-gnu"

@utf8_first_code_mask = internal constant [5 x i8] c"\1F\0F\07\03\01", align 1
@utf8_min_code = internal constant [5 x i32] [i32 128, i32 2048, i32 65536, i32 2097152, i32 67108864], align 16

; Function Attrs: nounwind uwtable
define dso_local i32 @unicode_from_utf8(ptr noundef %0, i32 noundef %1, ptr noundef %2) #0 {
  %4 = alloca i32, align 4
  %5 = alloca ptr, align 8
  %6 = alloca i32, align 4
  %7 = alloca ptr, align 8
  %8 = alloca i32, align 4
  %9 = alloca i32, align 4
  %10 = alloca i32, align 4
  %11 = alloca i32, align 4
  store ptr %0, ptr %5, align 8
  store i32 %1, ptr %6, align 4
  store ptr %2, ptr %7, align 8
  %12 = load ptr, ptr %5, align 8
  %13 = getelementptr i8, ptr %12, i32 1
  store ptr %13, ptr %5, align 8
  %14 = load i8, ptr %12, align 1
  %15 = zext i8 %14 to i32
  store i32 %15, ptr %9, align 4
  %16 = load i32, ptr %9, align 4
  %17 = icmp slt i32 %16, 128
  br i1 %17, label %18, label %22

18:                                               ; preds = %3
  %19 = load ptr, ptr %5, align 8
  %20 = load ptr, ptr %7, align 8
  store ptr %19, ptr %20, align 8
  %21 = load i32, ptr %9, align 4
  store i32 %21, ptr %4, align 4
  br label %82

22:                                               ; preds = %3
  %23 = load i32, ptr %9, align 4
  switch i32 %23, label %29 [
    i32 192, label %24
    i32 193, label %24
    i32 194, label %24
    i32 195, label %24
    i32 196, label %24
    i32 197, label %24
    i32 198, label %24
    i32 199, label %24
    i32 200, label %24
    i32 201, label %24
    i32 202, label %24
    i32 203, label %24
    i32 204, label %24
    i32 205, label %24
    i32 206, label %24
    i32 207, label %24
    i32 208, label %24
    i32 209, label %24
    i32 210, label %24
    i32 211, label %24
    i32 212, label %24
    i32 213, label %24
    i32 214, label %24
    i32 215, label %24
    i32 216, label %24
    i32 217, label %24
    i32 218, label %24
    i32 219, label %24
    i32 220, label %24
    i32 221, label %24
    i32 222, label %24
    i32 223, label %24
    i32 224, label %25
    i32 225, label %25
    i32 226, label %25
    i32 227, label %25
    i32 228, label %25
    i32 229, label %25
    i32 230, label %25
    i32 231, label %25
    i32 232, label %25
    i32 233, label %25
    i32 234, label %25
    i32 235, label %25
    i32 236, label %25
    i32 237, label %25
    i32 238, label %25
    i32 239, label %25
    i32 240, label %26
    i32 241, label %26
    i32 242, label %26
    i32 243, label %26
    i32 244, label %26
    i32 245, label %26
    i32 246, label %26
    i32 247, label %26
    i32 248, label %27
    i32 249, label %27
    i32 250, label %27
    i32 251, label %27
    i32 252, label %28
    i32 253, label %28
  ]

24:                                               ; preds = %22, %22, %22, %22, %22, %22, %22, %22, %22, %22, %22, %22, %22, %22, %22, %22, %22, %22, %22, %22, %22, %22, %22, %22, %22, %22, %22, %22, %22, %22, %22, %22
  store i32 1, ptr %8, align 4
  br label %30

25:                                               ; preds = %22, %22, %22, %22, %22, %22, %22, %22, %22, %22, %22, %22, %22, %22, %22, %22
  store i32 2, ptr %8, align 4
  br label %30

26:                                               ; preds = %22, %22, %22, %22, %22, %22, %22, %22
  store i32 3, ptr %8, align 4
  br label %30

27:                                               ; preds = %22, %22, %22, %22
  store i32 4, ptr %8, align 4
  br label %30

28:                                               ; preds = %22, %22
  store i32 5, ptr %8, align 4
  br label %30

29:                                               ; preds = %22
  store i32 -1, ptr %4, align 4
  br label %82

30:                                               ; preds = %28, %27, %26, %25, %24
  %31 = load i32, ptr %8, align 4
  %32 = load i32, ptr %6, align 4
  %33 = sub i32 %32, 1
  %34 = icmp sgt i32 %31, %33
  br i1 %34, label %35, label %36

35:                                               ; preds = %30
  store i32 -1, ptr %4, align 4
  br label %82

36:                                               ; preds = %30
  %37 = load i32, ptr %8, align 4
  %38 = sub i32 %37, 1
  %39 = sext i32 %38 to i64
  %40 = getelementptr [5 x i8], ptr @utf8_first_code_mask, i64 0, i64 %39
  %41 = load i8, ptr %40, align 1
  %42 = zext i8 %41 to i32
  %43 = load i32, ptr %9, align 4
  %44 = and i32 %43, %42
  store i32 %44, ptr %9, align 4
  store i32 0, ptr %11, align 4
  br label %45

45:                                               ; preds = %66, %36
  %46 = load i32, ptr %11, align 4
  %47 = load i32, ptr %8, align 4
  %48 = icmp slt i32 %46, %47
  br i1 %48, label %49, label %69

49:                                               ; preds = %45
  %50 = load ptr, ptr %5, align 8
  %51 = getelementptr i8, ptr %50, i32 1
  store ptr %51, ptr %5, align 8
  %52 = load i8, ptr %50, align 1
  %53 = zext i8 %52 to i32
  store i32 %53, ptr %10, align 4
  %54 = load i32, ptr %10, align 4
  %55 = icmp slt i32 %54, 128
  br i1 %55, label %59, label %56

56:                                               ; preds = %49
  %57 = load i32, ptr %10, align 4
  %58 = icmp sge i32 %57, 192
  br i1 %58, label %59, label %60

59:                                               ; preds = %56, %49
  store i32 -1, ptr %4, align 4
  br label %82

60:                                               ; preds = %56
  %61 = load i32, ptr %9, align 4
  %62 = shl i32 %61, 6
  %63 = load i32, ptr %10, align 4
  %64 = and i32 %63, 63
  %65 = or i32 %62, %64
  store i32 %65, ptr %9, align 4
  br label %66

66:                                               ; preds = %60
  %67 = load i32, ptr %11, align 4
  %68 = add i32 %67, 1
  store i32 %68, ptr %11, align 4
  br label %45, !llvm.loop !9

69:                                               ; preds = %45
  %70 = load i32, ptr %9, align 4
  %71 = load i32, ptr %8, align 4
  %72 = sub i32 %71, 1
  %73 = sext i32 %72 to i64
  %74 = getelementptr [5 x i32], ptr @utf8_min_code, i64 0, i64 %73
  %75 = load i32, ptr %74, align 4
  %76 = icmp ult i32 %70, %75
  br i1 %76, label %77, label %78

77:                                               ; preds = %69
  store i32 -1, ptr %4, align 4
  br label %82

78:                                               ; preds = %69
  %79 = load ptr, ptr %5, align 8
  %80 = load ptr, ptr %7, align 8
  store ptr %79, ptr %80, align 8
  %81 = load i32, ptr %9, align 4
  store i32 %81, ptr %4, align 4
  br label %82

82:                                               ; preds = %78, %77, %59, %35, %29, %18
  %83 = load i32, ptr %4, align 4
  ret i32 %83
}