; Function Attrs: nofree norecurse nosync nounwind memory(read, argmem: readwrite, inaccessiblemem: none) uwtable
define dso_local i32 @unicode_from_utf8(ptr noundef %0, i32 noundef %1, ptr nocapture noundef writeonly %2) local_unnamed_addr #3 {
  %4 = getelementptr i8, ptr %0, i64 1
  %5 = load i8, ptr %0, align 1
  %6 = icmp sgt i8 %5, -1
  br i1 %6, label %7, label %9

7:                                                ; preds = %3
  %8 = zext nneg i8 %5 to i32
  br label %.loopexit.sink.split

9:                                                ; preds = %3
  %switch.tableidx = add nsw i8 %5, 64
  %10 = icmp ult i8 %switch.tableidx, 62
  br i1 %10, label %switch.lookup, label %.loopexit

switch.lookup:                                    ; preds = %9
  %11 = zext nneg i8 %switch.tableidx to i64
  %switch.gep = getelementptr inbounds [62 x i32], ptr @switch.table.unicode_from_utf8, i64 0, i64 %11
  %switch.load = load i32, ptr %switch.gep, align 4
  %12 = add i32 %1, -1
  %13 = icmp sgt i32 %switch.load, %12
  br i1 %13, label %.loopexit, label %14

14:                                               ; preds = %switch.lookup
  %15 = add nsw i32 %switch.load, -1
  %16 = zext nneg i32 %15 to i64
  %17 = getelementptr [5 x i8], ptr @utf8_first_code_mask, i64 0, i64 %16
  %18 = load i8, ptr %17, align 1
  %19 = and i8 %18, %5
  %20 = zext i8 %19 to i32
  %21 = getelementptr i8, ptr %0, i64 %16
  %scevgep = getelementptr i8, ptr %21, i64 2
  br label %22

22:                                               ; preds = %14, %24
  %.034 = phi i32 [ 0, %14 ], [ %30, %24 ]
  %.02533 = phi i32 [ %20, %14 ], [ %29, %24 ]
  %.02732 = phi ptr [ %4, %14 ], [ %25, %24 ]
  %23 = load i8, ptr %.02732, align 1
  %or.cond = icmp sgt i8 %23, -65
  br i1 %or.cond, label %.loopexit, label %24

24:                                               ; preds = %22
  %25 = getelementptr i8, ptr %.02732, i64 1
  %26 = shl i32 %.02533, 6
  %27 = and i8 %23, 63
  %28 = zext nneg i8 %27 to i32
  %29 = or disjoint i32 %26, %28
  %30 = add nuw nsw i32 %.034, 1
  %exitcond.not = icmp eq i32 %30, %switch.load
  br i1 %exitcond.not, label %31, label %22, !llvm.loop !9

31:                                               ; preds = %24
  %32 = getelementptr [5 x i32], ptr @utf8_min_code, i64 0, i64 %16
  %33 = load i32, ptr %32, align 4
  %34 = icmp ult i32 %29, %33
  br i1 %34, label %.loopexit, label %.loopexit.sink.split

.loopexit.sink.split:                             ; preds = %31, %7
  %scevgep.sink = phi ptr [ %4, %7 ], [ %scevgep, %31 ]
  %.024.ph = phi i32 [ %8, %7 ], [ %29, %31 ]
  store ptr %scevgep.sink, ptr %2, align 8
  br label %.loopexit

.loopexit:                                        ; preds = %22, %9, %.loopexit.sink.split, %31, %switch.lookup
  %.024 = phi i32 [ -1, %9 ], [ -1, %switch.lookup ], [ -1, %31 ], [ %.024.ph, %.loopexit.sink.split ], [ -1, %22 ]
  ret i32 %.024
}